; Function Attrs: nounwind uwtable
define hidden void @zif_phar_filectime(ptr noundef %0, ptr noundef %1) #0 {
  %3 = alloca ptr, align 8
  %4 = alloca i64, align 8
  %5 = load i8, ptr getelementptr inbounds nuw (i8, ptr @phar_globals, i64 199), align 1, !tbaa !9, !range !19, !noundef !20
  %6 = trunc nuw i8 %5 to i1
  br i1 %6, label %9, label %7

7:                                                ; preds = %2
  %8 = load ptr, ptr getelementptr inbounds nuw (i8, ptr @phar_globals, i64 320), align 8, !tbaa !107
  tail call void %8(ptr noundef %0, ptr noundef %1) #12
  br label %22

9:                                                ; preds = %2
  call void @llvm.lifetime.start.p0(i64 8, ptr nonnull %3) #12
  call void @llvm.lifetime.start.p0(i64 8, ptr nonnull %4) #12
  %10 = getelementptr inbounds nuw i8, ptr %0, i64 44
  %11 = load i32, ptr %10, align 4, !tbaa !21
  %12 = call i32 (i32, ptr, ...) @zend_parse_parameters(i32 noundef %11, ptr noundef nonnull @.str.12, ptr noundef nonnull %3, ptr noundef nonnull %4) #12
  %13 = icmp eq i32 %12, -1
  br i1 %13, label %14, label %17

14:                                               ; preds = %9
  %15 = load ptr, ptr getelementptr inbounds nuw (i8, ptr @executor_globals, i64 960), align 8, !tbaa !22
  %16 = icmp ne ptr %15, null
  call void @llvm.assume(i1 %16)
  br label %21

17:                                               ; preds = %9
  %18 = load ptr, ptr %3, align 8, !tbaa !50
  %19 = load i64, ptr %4, align 8, !tbaa !53
  %20 = load ptr, ptr getelementptr inbounds nuw (i8, ptr @phar_globals, i64 320), align 8, !tbaa !107
  call fastcc void @phar_file_stat(ptr noundef %18, i64 noundef %19, i32 noundef 7, ptr noundef %20, ptr noundef nonnull %0, ptr noundef %1)
  br label %21

21:                                               ; preds = %17, %14
  call void @llvm.lifetime.end.p0(i64 8, ptr nonnull %4) #12
  call void @llvm.lifetime.end.p0(i64 8, ptr nonnull %3) #12
  br label %22

22:                                               ; preds = %21, %7
  ret void
}